target datalayout = "e-m:e-p270:32:32-p271:32:32-p272:64:64-i64:64-i128:128-f80:128-n8:16:32:64-S128"
target triple = "x86_64-pc-linux-gnu"

; Function Attrs: nounwind uwtable
define hidden void @PMurHash128x64_Result(ptr noundef %0, ptr noundef %1, i32 noundef %2, ptr noundef %3) #0 {
  %5 = alloca i64, align 8
  %6 = alloca i64, align 8
  %7 = alloca ptr, align 8
  %8 = alloca ptr, align 8
  %9 = alloca i32, align 4
  %10 = alloca ptr, align 8
  %11 = alloca i64, align 8
  %12 = alloca i64, align 8
  %13 = alloca i64, align 8
  %14 = alloca i64, align 8
  %15 = alloca i32, align 4
  store ptr %0, ptr %7, align 8
  store ptr %1, ptr %8, align 8
  store i32 %2, ptr %9, align 4
  store ptr %3, ptr %10, align 8
  %16 = load ptr, ptr %7, align 8
  %17 = getelementptr inbounds i64, ptr %16, i64 0
  %18 = load i64, ptr %17, align 8
  store i64 %18, ptr %11, align 8
  %19 = load ptr, ptr %7, align 8
  %20 = getelementptr inbounds i64, ptr %19, i64 1
  %21 = load i64, ptr %20, align 8
  store i64 %21, ptr %12, align 8
  %22 = load ptr, ptr %8, align 8
  %23 = getelementptr inbounds i64, ptr %22, i64 1
  %24 = load i64, ptr %23, align 8
  store i64 %24, ptr %14, align 8
  %25 = load i64, ptr %14, align 8
  %26 = and i64 %25, 15
  %27 = trunc i64 %26 to i32
  store i32 %27, ptr %15, align 4
  %28 = load i32, ptr %15, align 4
  %29 = icmp ne i32 %28, 0
  br i1 %29, label %30, label %75

30:                                               ; preds = %4
  %31 = load ptr, ptr %8, align 8
  %32 = getelementptr inbounds i64, ptr %31, i64 0
  %33 = load i64, ptr %32, align 8
  store i64 %33, ptr %13, align 8
  %34 = load i32, ptr %15, align 4
  %35 = icmp sgt i32 %34, 8
  br i1 %35, label %36, label %55

36:                                               ; preds = %30
  %37 = load i32, ptr %15, align 4
  %38 = sub nsw i32 16, %37
  %39 = mul nsw i32 %38, 8
  %40 = load i64, ptr %14, align 8
  %41 = zext i32 %39 to i64
  %42 = lshr i64 %40, %41
  store i64 %42, ptr %14, align 8
  %43 = load i64, ptr %14, align 8
  %44 = mul i64 %43, 5545529020109919103
  store i64 %44, ptr %14, align 8
  %45 = load i64, ptr %14, align 8
  %46 = shl i64 %45, 33
  %47 = load i64, ptr %14, align 8
  %48 = lshr i64 %47, 31
  %49 = or i64 %46, %48
  store i64 %49, ptr %14, align 8
  %50 = load i64, ptr %14, align 8
  %51 = mul i64 %50, -8663945395140668459
  store i64 %51, ptr %14, align 8
  %52 = load i64, ptr %14, align 8
  %53 = load i64, ptr %12, align 8
  %54 = xor i64 %53, %52
  store i64 %54, ptr %12, align 8
  br label %62

55:                                               ; preds = %30
  %56 = load i32, ptr %15, align 4
  %57 = sub nsw i32 8, %56
  %58 = mul nsw i32 %57, 8
  %59 = load i64, ptr %13, align 8
  %60 = zext i32 %58 to i64
  %61 = lshr i64 %59, %60
  store i64 %61, ptr %13, align 8
  br label %62

62:                                               ; preds = %55, %36
  %63 = load i64, ptr %13, align 8
  %64 = mul i64 %63, -8663945395140668459
  store i64 %64, ptr %13, align 8
  %65 = load i64, ptr %13, align 8
  %66 = shl i64 %65, 31
  %67 = load i64, ptr %13, align 8
  %68 = lshr i64 %67, 33
  %69 = or i64 %66, %68
  store i64 %69, ptr %13, align 8
  %70 = load i64, ptr %13, align 8
  %71 = mul i64 %70, 5545529020109919103
  store i64 %71, ptr %13, align 8
  %72 = load i64, ptr %13, align 8
  %73 = load i64, ptr %11, align 8
  %74 = xor i64 %73, %72
  store i64 %74, ptr %11, align 8
  br label %75

75:                                               ; preds = %62, %4
  %76 = load i32, ptr %9, align 4
  %77 = zext i32 %76 to i64
  %78 = load i64, ptr %11, align 8
  %79 = xor i64 %78, %77
  store i64 %79, ptr %11, align 8
  %80 = load i32, ptr %9, align 4
  %81 = zext i32 %80 to i64
  %82 = load i64, ptr %12, align 8
  %83 = xor i64 %82, %81
  store i64 %83, ptr %12, align 8
  %84 = load i64, ptr %12, align 8
  %85 = load i64, ptr %11, align 8
  %86 = add i64 %85, %84
  store i64 %86, ptr %11, align 8
  %87 = load i64, ptr %11, align 8
  %88 = load i64, ptr %12, align 8
  %89 = add i64 %88, %87
  store i64 %89, ptr %12, align 8
  %90 = load i64, ptr %11, align 8
  store i64 %90, ptr %5, align 8
  %91 = load i64, ptr %5, align 8
  %92 = lshr i64 %91, 33
  %93 = load i64, ptr %5, align 8
  %94 = xor i64 %93, %92
  store i64 %94, ptr %5, align 8
  %95 = load i64, ptr %5, align 8
  %96 = mul i64 %95, -49064778989728563
  store i64 %96, ptr %5, align 8
  %97 = load i64, ptr %5, align 8
  %98 = lshr i64 %97, 33
  %99 = load i64, ptr %5, align 8
  %100 = xor i64 %99, %98
  store i64 %100, ptr %5, align 8
  %101 = load i64, ptr %5, align 8
  %102 = mul i64 %101, -4265267296055464877
  store i64 %102, ptr %5, align 8
  %103 = load i64, ptr %5, align 8
  %104 = lshr i64 %103, 33
  %105 = load i64, ptr %5, align 8
  %106 = xor i64 %105, %104
  store i64 %106, ptr %5, align 8
  %107 = load i64, ptr %5, align 8
  store i64 %107, ptr %11, align 8
  %108 = load i64, ptr %12, align 8
  store i64 %108, ptr %6, align 8
  %109 = load i64, ptr %6, align 8
  %110 = lshr i64 %109, 33
  %111 = load i64, ptr %6, align 8
  %112 = xor i64 %111, %110
  store i64 %112, ptr %6, align 8
  %113 = load i64, ptr %6, align 8
  %114 = mul i64 %113, -49064778989728563
  store i64 %114, ptr %6, align 8
  %115 = load i64, ptr %6, align 8
  %116 = lshr i64 %115, 33
  %117 = load i64, ptr %6, align 8
  %118 = xor i64 %117, %116
  store i64 %118, ptr %6, align 8
  %119 = load i64, ptr %6, align 8
  %120 = mul i64 %119, -4265267296055464877
  store i64 %120, ptr %6, align 8
  %121 = load i64, ptr %6, align 8
  %122 = lshr i64 %121, 33
  %123 = load i64, ptr %6, align 8
  %124 = xor i64 %123, %122
  store i64 %124, ptr %6, align 8
  %125 = load i64, ptr %6, align 8
  store i64 %125, ptr %12, align 8
  %126 = load i64, ptr %12, align 8
  %127 = load i64, ptr %11, align 8
  %128 = add i64 %127, %126
  store i64 %128, ptr %11, align 8
  %129 = load i64, ptr %11, align 8
  %130 = load i64, ptr %12, align 8
  %131 = add i64 %130, %129
  store i64 %131, ptr %12, align 8
  %132 = load i64, ptr %11, align 8
  %133 = load ptr, ptr %10, align 8
  %134 = getelementptr inbounds i64, ptr %133, i64 0
  store i64 %132, ptr %134, align 8
  %135 = load i64, ptr %12, align 8
  %136 = load ptr, ptr %10, align 8
  %137 = getelementptr inbounds i64, ptr %136, i64 1
  store i64 %135, ptr %137, align 8
  ret void
}