; Function Attrs: mustprogress nofree norecurse nosync nounwind willreturn memory(argmem: readwrite) uwtable
define hidden void @PMurHash128x64_Result(ptr nocapture noundef readonly %0, ptr nocapture noundef readonly %1, i32 noundef %2, ptr nocapture noundef writeonly %3) local_unnamed_addr #0 {
  %5 = load i64, ptr %0, align 8
  %6 = getelementptr inbounds i8, ptr %0, i64 8
  %7 = load i64, ptr %6, align 8
  %8 = getelementptr inbounds i8, ptr %1, i64 8
  %9 = load i64, ptr %8, align 8
  %10 = trunc i64 %9 to i32
  %11 = and i32 %10, 15
  %.not = icmp eq i32 %11, 0
  br i1 %.not, label %37, label %12

12:                                               ; preds = %4
  %13 = load i64, ptr %1, align 8
  %14 = icmp ugt i32 %11, 8
  %15 = shl nuw nsw i32 %11, 3
  br i1 %14, label %16, label %26

16:                                               ; preds = %12
  %17 = sub nuw nsw i32 128, %15
  %18 = zext nneg i32 %17 to i64
  %19 = lshr i64 %9, %18
  %20 = mul i64 %19, 5545529020109919103
  %21 = mul i64 %19, 5659660229084708864
  %22 = lshr i64 %20, 31
  %23 = or disjoint i64 %22, %21
  %24 = mul i64 %23, -8663945395140668459
  %25 = xor i64 %24, %7
  br label %30

26:                                               ; preds = %12
  %27 = sub nuw nsw i32 64, %15
  %28 = zext nneg i32 %27 to i64
  %29 = lshr i64 %13, %28
  br label %30

30:                                               ; preds = %26, %16
  %.059 = phi i64 [ %25, %16 ], [ %7, %26 ]
  %.058 = phi i64 [ %13, %16 ], [ %29, %26 ]
  %31 = mul i64 %.058, -8663945395140668459
  %32 = mul i64 %.058, -8601547726154366976
  %33 = lshr i64 %31, 33
  %34 = or disjoint i64 %33, %32
  %35 = mul i64 %34, 5545529020109919103
  %36 = xor i64 %35, %5
  br label %37

37:                                               ; preds = %30, %4
  %.1 = phi i64 [ %.059, %30 ], [ %7, %4 ]
  %.0 = phi i64 [ %36, %30 ], [ %5, %4 ]
  %38 = zext i32 %2 to i64
  %39 = xor i64 %.0, %38
  %40 = xor i64 %.1, %38
  %41 = add i64 %39, %40
  %42 = add i64 %41, %40
  %43 = lshr i64 %41, 33
  %44 = xor i64 %43, %41
  %45 = mul i64 %44, -49064778989728563
  %46 = lshr i64 %45, 33
  %47 = xor i64 %46, %45
  %48 = mul i64 %47, -4265267296055464877
  %49 = lshr i64 %48, 33
  %50 = xor i64 %49, %48
  %51 = lshr i64 %42, 33
  %52 = xor i64 %51, %42
  %53 = mul i64 %52, -49064778989728563
  %54 = lshr i64 %53, 33
  %55 = xor i64 %54, %53
  %56 = mul i64 %55, -4265267296055464877
  %57 = lshr i64 %56, 33
  %58 = xor i64 %57, %56
  %59 = add i64 %58, %50
  %60 = add i64 %59, %58
  store i64 %59, ptr %3, align 8
  %61 = getelementptr inbounds i8, ptr %3, i64 8
  store i64 %60, ptr %61, align 8
  ret void
}